(lp0
(dp1
S'status'
p2
I1
sS'dark'
p3
I0
sS'price_int'
p4
I1464077
sS'target'
p5
F14.787173692017
sS'max_wait'
p6
I300
sS'currency'
p7
S'USD'
p8
sS'price'
p9
S'14.64077'
p10
sS'oid'
p11
S'50e6bd1f-b74d-477f-b72e-92d8922ab351'
p12
sS'stop'
p13
F10.6584776710776
sS'amount'
p14
S'0.2'
p15
sS'priority'
p16
S'1310016905177300'
p17
sS'item'
p18
S'BTC'
p19
sS'real_status'
p20
S'open'
p21
sS'book'
p22
S'held'
p23
sS'amount_int'
p24
I20000000
sS'date'
p25
I1310016905
sS'type'
p26
I2
sS'max_hold'
p27
I130560
sS'localtime'
p28
F1310017032.595122
sa(dp29
S'status'
p30
I1
sS'dark'
p31
I0
sS'price_int'
p32
I1464077
sg5
F14.787173692017
sg6
I300
sS'currency'
p33
S'USD'
p34
sS'price'
p35
S'14.64077'
p36
sS'oid'
p37
S'679b662f-7cea-435f-b5d7-e9cacf2db58c'
p38
sg13
F10.6584776710776
sS'amount'
p39
S'0.3'
p40
sS'priority'
p41
S'1310016520313600'
p42
sS'item'
p43
S'BTC'
p44
sS'real_status'
p45
S'open'
p46
sg22
S'held'
p47
sS'amount_int'
p48
I30000000
sS'date'
p49
I1310016520
sS'type'
p50
I2
sg27
I130560
sg28
F1310016778.653974
sa(dp51
S'status'
p52
I1
sS'dark'
p53
I0
sS'price_int'
p54
I1464077
sg5
F14.787173692017
sg6
I300
sS'currency'
p55
S'USD'
p56
sS'price'
p57
S'14.64077'
p58
sS'oid'
p59
S'679b662f-7cea-435f-b5d7-e9cacf2db58c'
p60
sg13
F10.6584776710776
sS'amount'
p61
S'0.1'
p62
sS'priority'
p63
S'1310016520313600'
p64
sS'item'
p65
S'BTC'
p66
sS'real_status'
p67
S'open'
p68
sg22
S'buy_cancel:max_wait'
p69
sS'amount_int'
p70
I10000000
sS'date'
p71
I1310016520
sS'type'
p72
I2
sg27
I130560
sg28
F1310016521.709962
sa(dp73
S'status'
p74
I0
sS'dark'
p75
I0
sS'price_int'
p76
I1483390
sg5
F14.787173692017
sg6
I300
sS'currency'
p77
S'USD'
p78
sS'price'
p79
S'14.8339'
p80
sS'oid'
p81
S'6d394c50-cc50-4a3f-8af7-d89f3c554bb1'
p82
sg13
F10.6584776710776
sS'amount'
p83
S'0.5'
p84
sS'priority'
p85
S'1310016249369300'
p86
sS'item'
p87
S'BTC'
p88
sS'real_status'
p89
S'invalid'
p90
sg22
S'sold'
p91
sS'amount_int'
p92
I50000000
sS'date'
p93
I1310016249
sS'type'
p94
I1
sg27
I130560
sg28
F1310016255.030658
sa(dp95
S'status'
p96
I1
sS'dark'
p97
I0
sS'price_int'
p98
I1464077
sg5
F14.787173692017
sg6
I300
sS'currency'
p99
S'USD'
p100
sS'price'
p101
S'14.64077'
p102
sS'oid'
p103
S'b460c961-de61-453f-98e7-ad6d6df60c63'
p104
sg13
F10.6584776710776
sS'amount'
p105
S'0.3'
p106
sS'priority'
p107
S'1310015740773500'
p108
sS'item'
p109
S'BTC'
p110
sS'real_status'
p111
S'open'
p112
sg22
S'closed:target'
p113
sS'amount_int'
p114
I30000000
sS'date'
p115
I1310015740
sS'type'
p116
I2
sg27
I130560
sg28
F1310015997.645381
sa(dp117
S'status'
p118
I1
sS'dark'
p119
I0
sS'price_int'
p120
I1464077
sg5
F14.787173692017
sg6
I300
sS'currency'
p121
S'USD'
p122
sS'price'
p123
S'14.64077'
p124
sS'oid'
p125
S'b460c961-de61-453f-98e7-ad6d6df60c63'
p126
sg13
F10.6584776710776
sS'amount'
p127
S'0.1'
p128
sS'priority'
p129
S'1310015740773500'
p130
sS'item'
p131
S'BTC'
p132
sS'real_status'
p133
S'open'
p134
sg22
g69
sS'amount_int'
p135
I10000000
sS'date'
p136
I1310015740
sS'type'
p137
I2
sg27
I130560
sg28
F1310015742.341675
sa(dp138
S'status'
p139
I0
sS'dark'
p140
I0
sS'price_int'
p141
I1480660
sg5
F14.787173692017
sg6
I300
sS'currency'
p142
S'USD'
p143
sS'price'
p144
S'14.8066'
p145
sS'oid'
p146
S'5a2a227f-2ba4-450d-b64b-a3fbc71f93a1'
p147
sg13
F10.6584776710776
sS'amount'
p148
S'1.13'
p149
sS'priority'
p150
S'1310015479298500'
p151
sS'item'
p152
S'BTC'
p153
sS'real_status'
p154
S'invalid'
p155
sg22
g91
sS'amount_int'
p156
I113000000
sS'date'
p157
I1310015479
sS'type'
p158
I1
sg27
I130560
sg28
F1310015488.234731
sa(dp159
S'status'
p160
I1
sS'priority'
p161
S'1310006621043800'
p162
sS'price_int'
p163
I1464077
sS'target'
p164
F14.787173692017
sS'max_wait'
p165
I300
sS'item'
p166
S'BTC'
p167
sS'price'
p168
S'14.64077'
p169
sS'oid'
p170
S'c6c430b1-da8e-4f88-8c74-f3a629ed5050'
p171
sS'stop'
p172
F10.6584776710776
sS'real_status'
p173
S'open'
p174
sS'dark'
p175
I0
sS'currency'
p176
S'USD'
p177
sS'amount'
p178
S'0.3'
p179
sS'book'
p180
g113
sS'amount_int'
p181
I30000000
sS'date'
p182
I1310006621
sS'type'
p183
I2
sS'max_hold'
p184
I130560
sS'localtime'
p185
F1310006874.819228
sa(dp186
S'status'
p187
I1
sS'priority'
p188
S'1310006621043800'
p189
sS'price_int'
p190
I1464077
sg164
F14.787173692017
sg165
I300
sS'item'
p191
S'BTC'
p192
sS'price'
p193
S'14.64077'
p194
sS'oid'
p195
S'c6c430b1-da8e-4f88-8c74-f3a629ed5050'
p196
sg172
F10.6584776710776
sS'real_status'
p197
S'open'
p198
sS'dark'
p199
I0
sS'currency'
p200
S'USD'
p201
sS'amount'
p202
S'0.1'
p203
sg180
S'buy_cancel:max_wait'
p204
sS'amount_int'
p205
I10000000
sS'date'
p206
I1310006621
sS'type'
p207
I2
sg184
I130560
sg185
F1310006622.58055
sa(dp208
S'status'
p209
I1
sS'priority'
p210
S'1310006114559400'
p211
sS'price_int'
p212
I1464077
sg164
F14.787173692017
sg165
I300
sS'item'
p213
S'BTC'
p214
sS'price'
p215
S'14.64077'
p216
sS'oid'
p217
S'3918e6f3-9d52-4820-80b4-4d1f32b1456c'
p218
sg172
F10.6584776710776
sS'real_status'
p219
S'open'
p220
sS'dark'
p221
I0
sS'currency'
p222
S'USD'
p223
sS'amount'
p224
S'0.3'
p225
sg180
g113
sS'amount_int'
p226
I30000000
sS'date'
p227
I1310006114
sS'type'
p228
I2
sg184
I130560
sg185
F1310006370.808882
sa(dp229
S'status'
p230
I1
sS'priority'
p231
S'1310006114559400'
p232
sS'price_int'
p233
I1464077
sg164
F14.787173692017
sg165
I300
sS'item'
p234
S'BTC'
p235
sS'price'
p236
S'14.64077'
p237
sS'oid'
p238
S'3918e6f3-9d52-4820-80b4-4d1f32b1456c'
p239
sg172
F10.6584776710776
sS'real_status'
p240
S'open'
p241
sS'dark'
p242
I0
sS'currency'
p243
S'USD'
p244
sS'amount'
p245
S'0.1'
p246
sg180
g204
sS'amount_int'
p247
I10000000
sS'date'
p248
I1310006114
sS'type'
p249
I2
sg184
I130560
sg185
F1310006115.770219
sa(dp250
S'status'
p251
I1
sS'priority'
p252
S'1310005709482400'
p253
sS'price_int'
p254
I1464077
sg164
F14.787173692017
sg165
I300
sS'item'
p255
S'BTC'
p256
sS'price'
p257
S'14.64077'
p258
sS'oid'
p259
S'5cc64d09-e268-443e-9294-b5cc7d0c302f'
p260
sg172
F10.6584776710776
sS'real_status'
p261
S'open'
p262
sS'dark'
p263
I0
sS'currency'
p264
S'USD'
p265
sS'amount'
p266
S'0.2'
p267
sg180
g113
sS'amount_int'
p268
I20000000
sS'date'
p269
I1310005709
sS'type'
p270
I2
sg184
I130560
sg185
F1310005849.152694
sa(dp271
S'status'
p272
I1
sS'priority'
p273
S'1310005324077100'
p274
sS'price_int'
p275
I1464077
sg164
F14.787173692017
sg165
I300
sS'item'
p276
S'BTC'
p277
sS'price'
p278
S'14.64077'
p279
sS'oid'
p280
S'38407ed8-6ae0-4731-b016-7db43fe83b25'
p281
sg172
F10.6584776710776
sS'real_status'
p282
S'open'
p283
sS'dark'
p284
I0
sS'currency'
p285
S'USD'
p286
sS'amount'
p287
S'0.1'
p288
sg180
g204
sS'amount_int'
p289
I10000000
sS'date'
p290
I1310005324
sS'type'
p291
I2
sg184
I130560
sg185
F1310005325.341193
sa(dp292
S'status'
p293
I1
sS'priority'
p294
S'1310004817522800'
p295
sS'price_int'
p296
I1464077
sg164
F14.787173692017
sg165
I300
sS'item'
p297
S'BTC'
p298
sS'price'
p299
S'14.64077'
p300
sS'oid'
p301
S'c48b2473-8cd0-41f2-885f-b97ee04014c9'
p302
sg172
F10.6584776710776
sS'real_status'
p303
S'open'
p304
sS'dark'
p305
I0
sS'currency'
p306
S'USD'
p307
sS'amount'
p308
S'0.3'
p309
sg180
S'closed:target'
p310
sS'amount_int'
p311
I30000000
sS'date'
p312
I1310004817
sS'type'
p313
I2
sg184
I130560
sg185
F1310005072.306004
sa(dp314
S'status'
p315
I1
sS'priority'
p316
S'1310004817522800'
p317
sS'price_int'
p318
I1464077
sg164
F14.787173692017
sg165
I300
sS'item'
p319
S'BTC'
p320
sS'price'
p321
S'14.64077'
p322
sS'oid'
p323
S'c48b2473-8cd0-41f2-885f-b97ee04014c9'
p324
sg172
F10.6584776710776
sS'real_status'
p325
S'open'
p326
sS'dark'
p327
I0
sS'currency'
p328
S'USD'
p329
sS'amount'
p330
S'0.1'
p331
sg180
g310
sS'amount_int'
p332
I10000000
sS'date'
p333
I1310004817
sS'type'
p334
I2
sg184
I130560
sg185
F1310004818.707624
sa(dp335
S'status'
p336
I1
sS'priority'
p337
S'1310004421767100'
p338
sS'price_int'
p339
I1464077
sg164
F14.787173692017
sg165
I300
sS'item'
p340
S'BTC'
p341
sS'price'
p342
S'14.64077'
p343
sS'oid'
p344
S'0f103d7f-523b-4c44-a1a7-76967e7bda16'
p345
sg172
F10.6584776710776
sS'real_status'
p346
S'open'
p347
sS'dark'
p348
I0
sS'currency'
p349
S'USD'
p350
sS'amount'
p351
S'0.2'
p352
sg180
g310
sS'amount_int'
p353
I20000000
sS'date'
p354
I1310004421
sS'type'
p355
I2
sg184
I130560
sg185
F1310004549.359093
sa(dp356
S'status'
p357
I1
sS'priority'
p358
S'1310004037390400'
p359
sS'price_int'
p360
I1464077
sg164
F14.787173692017
sg165
I300
sS'item'
p361
S'BTC'
p362
sS'price'
p363
S'14.64077'
p364
sS'oid'
p365
S'322d8027-2f01-4c3b-9dd8-fad7f45c1195'
p366
sg172
F10.6584776710776
sS'real_status'
p367
S'open'
p368
sS'dark'
p369
I0
sS'currency'
p370
S'USD'
p371
sS'amount'
p372
S'0.3'
p373
sg180
g310
sS'amount_int'
p374
I30000000
sS'date'
p375
I1310004037
sS'type'
p376
I2
sg184
I130560
sg185
F1310004293.513691
sa(dp377
S'status'
p378
I1
sS'priority'
p379
S'1310004037390400'
p380
sS'price_int'
p381
I1464077
sg164
F14.787173692017
sg165
I300
sS'item'
p382
S'BTC'
p383
sS'price'
p384
S'14.64077'
p385
sS'oid'
p386
S'322d8027-2f01-4c3b-9dd8-fad7f45c1195'
p387
sg172
F10.6584776710776
sS'real_status'
p388
S'open'
p389
sS'dark'
p390
I0
sS'currency'
p391
S'USD'
p392
sS'amount'
p393
S'0.1'
p394
sg180
g204
sS'amount_int'
p395
I10000000
sS'date'
p396
I1310004037
sS'type'
p397
I2
sg184
I130560
sg185
F1310004038.889386
sa(dp398
S'status'
p399
I2
sS'priority'
p400
S'1310003771907600'
p401
sS'price_int'
p402
I1464666
sg164
F14.7931266
sg165
I300
sS'item'
p403
S'BTC'
p404
sS'price'
p405
S'14.64666'
p406
sS'oid'
p407
S'c8eefbf3-1bdd-40a7-ae48-6a28453d2d79'
p408
sg172
F10.66276848
sS'real_status'
p409
S'pending'
p410
sS'dark'
p411
I0
sS'currency'
p412
S'USD'
p413
sS'amount'
p414
S'0.1'
p415
sg180
S'closed:insuf'
p416
sS'amount_int'
p417
I10000000
sS'date'
p418
I1310003771
sS'type'
p419
I2
sg184
I130560
sg185
F1310003774.952812
sa(dp420
S'status'
p421
I1
sS'priority'
p422
S'1310003515331900'
p423
sS'price_int'
p424
I1462004
sg164
F14.766237047305
sg165
I300
sS'item'
p425
S'BTC'
p426
sS'price'
p427
S'14.62004'
p428
sS'oid'
p429
S'84a0df4e-46f5-4400-a8b3-1c6cab6cfe00'
p430
sg172
F10.643386703404
sS'real_status'
p431
S'open'
p432
sS'dark'
p433
I0
sS'currency'
p434
S'USD'
p435
sS'amount'
p436
S'0.1'
p437
sg180
g310
sS'amount_int'
p438
I10000000
sS'date'
p439
I1310003515
sS'type'
p440
I2
sg184
I130560
sg185
F1310003516.544503
sa(dp441
S'status'
p442
I1
sS'priority'
p443
S'1310003256241300'
p444
sS'price_int'
p445
I1457370
sg164
F14.719437000000001
sg165
I300
sS'item'
p446
S'BTC'
p447
sS'price'
p448
S'14.5737'
p449
sS'oid'
p450
S'84f892e4-b9ad-4f30-8fa0-e96cf01c5eb1'
p451
sg172
F10.6096536
sS'real_status'
p452
S'open'
p453
sS'dark'
p454
I0
sS'currency'
p455
S'USD'
p456
sS'amount'
p457
S'0.1'
p458
sg180
g204
sS'amount_int'
p459
I10000000
sS'date'
p460
I1310003256
sS'type'
p461
I2
sg184
I130560
sg185
F1310003257.542465
sa(dp462
S'status'
p463
I1
sS'priority'
p464
S'1310002989059700'
p465
sS'price_int'
p466
I1455000
sg164
F14.695500000000001
sg165
I300
sS'item'
p467
S'BTC'
p468
sS'price'
p469
S'14.55'
p470
sS'oid'
p471
S'6761a8bb-1df8-4917-b228-587ca29a2f6f'
p472
sg172
F10.5924
sS'real_status'
p473
S'open'
p474
sS'dark'
p475
I0
sS'currency'
p476
S'USD'
p477
sS'amount'
p478
S'0.1'
p479
sg180
g204
sS'amount_int'
p480
I10000000
sS'date'
p481
I1310002989
sS'type'
p482
I2
sg184
I130560
sg185
F1310002991.876737
sa(dp483
S'status'
p484
I1
sS'priority'
p485
S'1309998430119600'
p486
sS'price_int'
p487
I1495890
sg164
F14.718635198572
sg165
I300
sS'item'
p488
S'BTC'
p489
sS'price'
p490
S'14.9589'
p491
sS'oid'
p492
S'f38c8129-6afa-426f-944a-e1303ab61bae'
p493
sg172
F10.6090756678816
sS'real_status'
p494
S'open'
p495
sS'dark'
p496
I0
sS'currency'
p497
S'USD'
p498
sS'amount'
p499
S'0.1'
p500
sg180
g91
sS'amount_int'
p501
I10000000
sS'date'
p502
I1309998430
sS'type'
p503
I1
sg184
I130560
sg185
F1310002738.288107
sa(dp504
S'status'
p505
I1
sS'priority'
p506
S'1310002483932600'
p507
sS'price_int'
p508
I1457510
sg164
F14.720852438038
sg165
I300
sS'item'
p509
S'BTC'
p510
sS'price'
p511
S'14.5751'
p512
sS'oid'
p513
S'44fae0f1-777e-4389-b4ef-d376968b704a'
p514
sg172
F10.610673836526399
sS'real_status'
p515
S'open'
p516
sS'dark'
p517
I0
sS'currency'
p518
S'USD'
p519
sS'amount'
p520
S'0.1'
p521
sg180
g310
sS'amount_int'
p522
I10000000
sS'date'
p523
I1310002483
sS'type'
p524
I2
sg184
I130560
sg185
F1310002485.079577
sa(dp525
S'status'
p526
I1
sS'priority'
p527
S'1309998430119600'
p528
sS'price_int'
p529
I1495890
sS'target'
p530
F14.837630049917
sS'max_wait'
p531
I300
sS'item'
p532
S'BTC'
p533
sS'price'
p534
S'14.9589'
p535
sS'oid'
p536
S'f38c8129-6afa-426f-944a-e1303ab61bae'
p537
sS'stop'
p538
F10.6948462141976
sS'real_status'
p539
S'open'
p540
sS'dark'
p541
I0
sS'currency'
p542
S'USD'
p543
sS'amount'
p544
S'0.1'
p545
sS'book'
p546
g91
sS'amount_int'
p547
I10000000
sS'date'
p548
I1309998430
sS'type'
p549
I1
sS'max_hold'
p550
I130560
sS'localtime'
p551
F1310000045.732515
sa(dp552
S'status'
p553
I1
sS'priority'
p554
S'1309997052649300'
p555
sS'price_int'
p556
I1477908
sg530
F14.926869222986
sg531
I300
sS'item'
p557
S'BTC'
p558
sS'price'
p559
S'14.77908'
p560
sS'oid'
p561
S'18ac8c87-32db-4dc2-8895-1d672492c75f'
p562
sg538
F10.759169103300799
sS'real_status'
p563
S'open'
p564
sS'dark'
p565
I0
sS'currency'
p566
S'USD'
p567
sS'amount'
p568
S'0.1'
p569
sg546
S'buy_cancel:max_wait'
p570
sS'amount_int'
p571
I10000000
sS'date'
p572
I1309997052
sS'type'
p573
I2
sg550
I130560
sg551
F1309997053.803432
sa(dp574
S'status'
p575
I1
sS'priority'
p576
S'1309996793328800'
p577
sS'price_int'
p578
I1475669
sg530
F14.904261609529
sg531
I300
sS'item'
p579
S'BTC'
p580
sS'price'
p581
S'14.75669'
p582
sS'oid'
p583
S'caa479d0-ad1e-46af-9115-bd7cc738a5c4'
p584
sg538
F10.742873714591198
sS'real_status'
p585
S'open'
p586
sS'dark'
p587
I0
sS'currency'
p588
S'USD'
p589
sS'amount'
p590
S'0.1'
p591
sg546
S'closed:target'
p592
sS'amount_int'
p593
I10000000
sS'date'
p594
I1309996793
sS'type'
p595
I2
sg550
I130560
sg551
F1309996794.596253
sa(dp596
S'status'
p597
I1
sS'priority'
p598
S'1309996539375100'
p599
sS'price_int'
p600
I1469821
sg530
F14.845195966381
sg531
I300
sS'item'
p601
S'BTC'
p602
sS'price'
p603
S'14.69821'
p604
sS'oid'
p605
S'd46aa84d-8e7a-492b-b8c4-7885ece3fef7'
p606
sg538
F10.7002996668568
sS'real_status'
p607
S'open'
p608
sS'dark'
p609
I0
sS'currency'
p610
S'USD'
p611
sS'amount'
p612
S'0.1'
p613
sg546
g592
sS'amount_int'
p614
I10000000
sS'date'
p615
I1309996539
sS'type'
p616
I2
sg550
I130560
sg551
F1309996540.498137
sa(dp617
S'status'
p618
I1
sS'priority'
p619
S'1309996285548200'
p620
sS'price_int'
p621
I1467606
sg530
F14.822818314875
sg531
I300
sS'item'
p622
S'BTC'
p623
sS'price'
p624
S'14.67606'
p625
sS'oid'
p626
S'79a3e99d-0243-4c9f-8e78-29f2aa3c4132'
p627
sg538
F10.684170032900001
sS'real_status'
p628
S'open'
p629
sS'dark'
p630
I0
sS'currency'
p631
S'USD'
p632
sS'amount'
p633
S'0.1'
p634
sg546
g570
sS'amount_int'
p635
I10000000
sS'date'
p636
I1309996285
sS'type'
p637
I2
sg550
I130560
sg551
F1309996286.890984
sa(dp638
S'status'
p639
I1
sS'priority'
p640
S'1309995756551200'
p641
sS'price_int'
p642
I1488900
sg530
F14.926135654734
sg531
I300
sS'item'
p643
S'BTC'
p644
sS'price'
p645
S'14.889'
p646
sS'oid'
p647
S'307ce02a-41b2-4757-865e-ff339caddad5'
p648
sg538
F10.7586403531152
sS'real_status'
p649
S'open'
p650
sS'dark'
p651
I0
sS'currency'
p652
S'USD'
p653
sS'amount'
p654
S'0.57'
p655
sg546
S'sold'
p656
sS'amount_int'
p657
I57000000
sS'date'
p658
I1309995756
sS'type'
p659
I1
sg550
I130560
sg551
F1309996034.58175
sa(dp660
S'status'
p661
I1
sS'priority'
p662
S'1309995766489900'
p663
sS'price_int'
p664
I1474900
sg530
F14.89649
sg531
I300
sS'item'
p665
S'BTC'
p666
sS'price'
p667
S'14.749'
p668
sS'oid'
p669
S'eac395b6-9a24-4685-95a0-5cab0ddfb523'
p670
sg538
F10.737272
sS'real_status'
p671
S'open'
p672
sS'dark'
p673
I0
sS'currency'
p674
S'USD'
p675
sS'amount'
p676
S'0.1'
p677
sg546
g592
sS'amount_int'
p678
I10000000
sS'date'
p679
I1309995766
sS'type'
p680
I2
sg550
I130560
sg551
F1309995767.614069
sa(dp681
S'status'
p682
I1
sS'priority'
p683
S'1309995505718700'
p684
sS'price_int'
p685
I1468000
sg530
F14.8268
sg531
I300
sS'item'
p686
S'BTC'
p687
sS'price'
p688
S'14.68'
p689
sS'oid'
p690
S'ca3baf94-c17c-4a59-83e1-3f03895623a6'
p691
sg538
F10.68704
sS'real_status'
p692
S'open'
p693
sS'dark'
p694
I0
sS'currency'
p695
S'USD'
p696
sS'amount'
p697
S'0.1'
p698
sg546
g570
sS'amount_int'
p699
I10000000
sS'date'
p700
I1309995505
sS'type'
p701
I2
sg550
I130560
sg551
F1309995506.832778
sa(dp702
S'status'
p703
I1
sS'priority'
p704
S'1309995165023600'
p705
sS'price_int'
p706
I1467401
sg530
F14.828873163269
sg531
I300
sS'item'
p707
S'BTC'
p708
sS'price'
p709
S'14.67401'
p710
sS'oid'
p711
S'093b4e52-4739-4e8c-a45b-10ed38eff059'
p712
sg538
F10.6885343196632
sS'real_status'
p713
S'open'
p714
sS'dark'
p715
I0
sS'currency'
p716
S'USD'
p717
sS'amount'
p718
S'0.1'
p719
sg546
g592
sS'amount_int'
p720
I10000000
sS'date'
p721
I1309995165
sS'type'
p722
I2
sg550
I130560
sg551
F1309995243.816898
sa(dp723
S'status'
p724
I1
sS'dark'
p725
I0
sS'price_int'
p726
I1467401
sS'target'
p727
F14.820746571969
sS'max_wait'
p728
I300
sS'currency'
p729
S'USD'
p730
sS'price'
p731
S'14.67401'
p732
sS'oid'
p733
S'093b4e52-4739-4e8c-a45b-10ed38eff059'
p734
sS'stop'
p735
F10.6826767370232
sS'amount'
p736
S'0.1'
p737
sS'priority'
p738
S'1309995165023600'
p739
sS'item'
p740
S'BTC'
p741
sS'real_status'
p742
S'open'
p743
sS'book'
p744
g570
sS'amount_int'
p745
I10000000
sS'date'
p746
I1309995165
sS'type'
p747
I2
sS'max_hold'
p748
I130560
sS'localtime'
p749
F1309995166.410065
sa(dp750
S'status'
p751
I1
sS'dark'
p752
I0
sS'price_int'
p753
I1464666
sg727
F14.7931266
sg728
I300
sS'currency'
p754
S'USD'
p755
sS'price'
p756
S'14.64666'
p757
sS'oid'
p758
S'012d0277-ffd2-4cbe-813f-773b6f6f9e31'
p759
sg735
F10.66276848
sS'amount'
p760
S'0.1'
p761
sS'priority'
p762
S'1309994903419900'
p763
sS'item'
p764
S'BTC'
p765
sS'real_status'
p766
S'open'
p767
sg744
g570
sS'amount_int'
p768
I10000000
sS'date'
p769
I1309994903
sS'type'
p770
I2
sg748
I130560
sg749
F1309994904.588189
sa(dp771
S'status'
p772
I1
sS'dark'
p773
I0
sS'price_int'
p774
I1463860
sg727
F14.784982633367
sg728
I300
sS'currency'
p775
S'USD'
p776
sS'price'
p777
S'14.6386'
p778
sS'oid'
p779
S'49a00596-ae8a-40aa-b616-3c10e2f1ade7'
p780
sg735
F10.656898373357599
sS'amount'
p781
S'0.1'
p782
sS'priority'
p783
S'1309994650240500'
p784
sS'item'
p785
S'BTC'
p786
sS'real_status'
p787
S'open'
p788
sg744
S'buy_cancel:max_wait'
p789
sS'amount_int'
p790
I10000000
sS'date'
p791
I1309994650
sS'type'
p792
I2
sg748
I130560
sg749
F1309994651.658403
sa(dp793
S'status'
p794
I1
sS'dark'
p795
I0
sS'price_int'
p796
I1464000
sg727
F14.786396204218
sg728
I300
sS'currency'
p797
S'USD'
p798
sS'price'
p799
S'14.64'
p800
sS'oid'
p801
S'142bf41e-06f9-42f8-8d4d-eafba31e2791'
p802
sg735
F10.6579172640304
sS'amount'
p803
S'0.1'
p804
sS'priority'
p805
S'1309994384898400'
p806
sS'item'
p807
S'BTC'
p808
sS'real_status'
p809
S'open'
p810
sg744
g592
sS'amount_int'
p811
I10000000
sS'date'
p812
I1309994384
sS'type'
p813
I2
sg748
I130560
sg749
F1309994386.192378
sa(dp814
S'status'
p815
I1
sS'dark'
p816
I0
sS'price_int'
p817
I1463716
sg727
F14.783528410520999
sg728
I300
sS'currency'
p818
S'USD'
p819
sS'price'
p820
S'14.63716'
p821
sS'oid'
p822
S'e8d9f9e0-587c-4f48-8962-c21697ee4e2a'
p823
sg735
F10.6558501810488
sS'amount'
p824
S'0.1'
p825
sS'priority'
p826
S'1309994123410300'
p827
sS'item'
p828
S'BTC'
p829
sS'real_status'
p830
S'open'
p831
sg744
g789
sS'amount_int'
p832
I10000000
sS'date'
p833
I1309994123
sS'type'
p834
I2
sg748
F1310124641.644421
sg749
F1309994124.60108
sa(dp835
S'status'
p836
I1
sS'dark'
p837
I0
sS'price_int'
p838
I1460382
sg727
F14.749853437243999
sg728
I300
sS'currency'
p839
S'USD'
p840
sS'price'
p841
S'14.60382'
p842
sS'oid'
p843
S'152d6cd8-27f0-43f9-a181-00e784a8107f'
p844
sg735
F10.631577527043198
sS'amount'
p845
S'0.1'
p846
sS'priority'
p847
S'1309993861671300'
p848
sS'item'
p849
S'BTC'
p850
sS'real_status'
p851
S'open'
p852
sg744
g789
sS'amount_int'
p853
I10000000
sS'date'
p854
I1309993861
sS'type'
p855
I2
sg748
F1310124399.42117
sg749
F1309993862.98228
sa(dp856
S'status'
p857
I1
sS'dark'
p858
I0
sS'price_int'
p859
I1459958
sg727
F14.745576718191
sg728
I300
sS'currency'
p860
S'USD'
p861
sS'price'
p862
S'14.59958'
p863
sS'oid'
p864
S'299c29cc-7213-4f21-9cdb-1778be155ac4'
p865
sg735
F10.6284949018248
sS'amount'
p866
S'0.1'
p867
sS'priority'
p868
S'1309993577585400'
p869
sS'item'
p870
S'BTC'
p871
sS'real_status'
p872
S'open'
p873
sg744
g789
sS'amount_int'
p874
I10000000
sS'date'
p875
I1309993577
sS'type'
p876
I2
sg748
F1310124096.477761
sg749
F1309993578.934239
sa(dp877
S'status'
p878
I1
sS'dark'
p879
I0
sS'price_int'
p880
I1458999
sg727
F14.7358899
sg728
I300
sS'currency'
p881
S'USD'
p882
sS'price'
p883
S'14.58999'
p884
sS'oid'
p885
S'750f9bc1-a5c3-4916-bc1e-b792b5391ac9'
p886
sg735
F10.62151272
sS'amount'
p887
S'0.1'
p888
sS'priority'
p889
S'1309993311678000'
p890
sS'item'
p891
S'BTC'
p892
sS'real_status'
p893
S'open'
p894
sg744
g789
sS'amount_int'
p895
I10000000
sS'date'
p896
I1309993311
sS'type'
p897
I2
sg748
F1310123854.17218
sg749
F1309993321.286649
sa(dp898
S'status'
p899
I1
sS'dark'
p900
I0
sS'price_int'
p901
I1450010
sg727
F14.645105770432
sg728
I300
sS'currency'
p902
S'USD'
p903
sS'price'
p904
S'14.5001'
p905
sS'oid'
p906
S'c5954037-7487-4afd-8df8-27cf7c77a6e1'
p907
sg735
F10.556076238489599
sS'amount'
p908
S'0.1'
p909
sS'priority'
p910
S'1309993053579300'
p911
sS'item'
p912
S'BTC'
p913
sS'real_status'
p914
S'open'
p915
sg744
g789
sS'amount_int'
p916
I10000000
sS'date'
p917
I1309993053
sS'type'
p918
I2
sg748
F1310123611.891493
sg749
F1309993054.705535
sa(dp919
S'status'
p920
I1
sS'dark'
p921
I0
sS'price_int'
p922
I1457380
sg727
F14.719542821032999
sg728
I300
sS'currency'
p923
S'USD'
p924
sS'price'
p925
S'14.5738'
p926
sS'oid'
p927
S'762076b1-e48a-4776-94a4-cb70a13b4248'
p928
sg735
F10.6097298749624
sS'amount'
p929
S'0.1'
p930
sS'priority'
p931
S'1309992789068600'
p932
sS'item'
p933
S'BTC'
p934
sS'real_status'
p935
S'open'
p936
sg744
g592
sS'amount_int'
p937
I10000000
sS'date'
p938
I1309992789
sS'type'
p939
I2
sg748
F1310123308.837569
sg749
F1309992790.52747
sa(dp940
S'status'
p941
I1
sS'dark'
p942
I0
sS'price_int'
p943
I1454878
sg727
F14.694268361964001
sg728
I300
sS'currency'
p944
S'USD'
p945
sS'price'
p946
S'14.54878'
p947
sS'oid'
p948
S'2b28a39e-396f-4791-afe8-8002184603f1'
p949
sg735
F10.5915122450592
sS'amount'
p950
S'0.1'
p951
sS'priority'
p952
S'1309992528434300'
p953
sS'item'
p954
S'BTC'
p955
sS'real_status'
p956
S'open'
p957
sg744
g592
sS'amount_int'
p958
I10000000
sS'date'
p959
I1309992528
sS'type'
p960
I2
sg748
F1310123066.375089
sg749
F1309992530.209616
sa(dp961
S'status'
p962
I1
sS'dark'
p963
I0
sS'price_int'
p964
I1467555
sg727
F14.822300861575
sg728
I300
sS'currency'
p965
S'USD'
p966
sS'price'
p967
S'14.67555'
p968
sS'oid'
p969
S'0077ecef-e271-4117-adf5-960987d0242c'
p970
sg735
F9.9793708771
sS'amount'
p971
S'0.1'
p972
sS'priority'
p973
S'1309992269904100'
p974
sS'item'
p975
S'BTC'
p976
sS'real_status'
p977
S'open'
p978
sg744
g592
sS'amount_int'
p979
I10000000
sS'date'
p980
I1309992269
sS'type'
p981
I2
sg748
F1310122823.971518
sg749
F1309992271.258765
sa(dp982
S'status'
p983
I1
sS'dark'
p984
I0
sS'price_int'
p985
I1458168
sg727
F14.727500233393998
sg728
I300
sS'currency'
p986
S'USD'
p987
sS'price'
p988
S'14.58168'
p989
sS'oid'
p990
S'e2658ae7-6a4d-49ba-a869-994769df78e6'
p991
sg735
F9.215623908420799
sS'amount'
p992
S'0.1'
p993
sS'priority'
p994
S'1309991955046100'
p995
sS'item'
p996
S'BTC'
p997
sS'real_status'
p998
S'open'
p999
sg744
g789
sS'amount_int'
p1000
I10000000
sS'date'
p1001
I1309991955
sS'type'
p1002
I2
sg748
F1310122460.423484
sg749
F1309991956.358917
sa(dp1003
S'status'
p1004
I1
sS'dark'
p1005
I0
sS'price_int'
p1006
I1465000
sg727
F14.7965
sg728
I300
sS'currency'
p1007
S'USD'
p1008
sS'price'
p1009
S'14.65'
p1010
sS'oid'
p1011
S'55f4e9d4-2a8d-4fcb-a938-9e9d75800604'
p1012
sg735
F9.2588
sS'amount'
p1013
S'0.1'
p1014
sS'priority'
p1015
S'1309992080900600'
p1016
sS'item'
p1017
S'BTC'
p1018
sS'real_status'
p1019
S'open'
p1020
sg744
g592
sS'amount_int'
p1021
I10000000
sS'date'
p1022
I1309992080
sS'type'
p1023
I2
sg748
F1310122581.61075
sg749
F1309992081.98708
sa(dp1024
S'status'
p1025
I1
sS'dark'
p1026
I0
sS'price_int'
p1027
I1055600
sg727
F14.83438018433
sg728
I300
sS'currency'
p1028
S'USD'
p1029
sS'price'
p1030
S'10.556'
p1031
sS'oid'
p1032
S'dbf068fb-d2eb-4a40-92b7-540122df7b89'
p1033
sg735
F9.98750349044
sS'amount'
p1034
S'23.84236358'
p1035
sS'priority'
p1036
S'1309896441750100'
p1037
sS'item'
p1038
S'BTC'
p1039
sS'real_status'
p1040
S'open'
p1041
sg744
g789
sS'amount_int'
p1042
I2384236358
sS'date'
p1043
I1309896441
sS'type'
p1044
I2
sg748
F1310122945.160134
sg749
F1309992397.030834
sa(dp1045
S'status'
p1046
I1
sS'dark'
p1047
I0
sS'price_int'
p1048
I1457339
sg727
F14.719124864348
sg728
I300
sS'currency'
p1049
S'USD'
p1050
sS'price'
p1051
S'14.57339'
p1052
sS'oid'
p1053
S'5e4bc0f2-1005-464a-b393-aaf07c311dbe'
p1054
sg735
F10.6094286150944
sS'amount'
p1055
S'0.1'
p1056
sS'priority'
p1057
S'1309992655979100'
p1058
sS'item'
p1059
S'BTC'
p1060
sS'real_status'
p1061
S'open'
p1062
sg744
g592
sS'amount_int'
p1063
I10000000
sS'date'
p1064
I1309992655
sS'type'
p1065
I2
sg748
F1310123187.577298
sg749
F1309992657.273902
sa(dp1066
S'status'
p1067
I1
sS'dark'
p1068
I0
sS'price_int'
p1069
I1055600
sg727
F14.690976565116
sg728
I300
sS'currency'
p1070
S'USD'
p1071
sS'price'
p1072
S'10.556'
p1073
sS'oid'
p1074
S'1927ef58-5e5a-4d5e-b723-33d74318e01c'
p1075
sg735
F10.5891395439648
sS'amount'
p1076
S'0.68351933'
p1077
sS'priority'
p1078
S'1309896441750100'
p1079
sS'item'
p1080
S'BTC'
p1081
sS'real_status'
p1082
S'open'
p1083
sg744
g789
sS'amount_int'
p1084
I68351933
sS'date'
p1085
I1309896441
sS'type'
p1086
I2
sg748
F1310123430.019349
sg749
F1309992928.655472
sa(dp1087
S'status'
p1088
I1
sS'dark'
p1089
I0
sS'price_int'
p1090
I1455776
sg727
F14.703333538588
sg728
I300
sS'currency'
p1091
S'USD'
p1092
sS'price'
p1093
S'14.55776'
p1094
sS'oid'
p1095
S'a189347e-b7c5-47d3-9d6e-ae853b210469'
p1096
sg735
F10.5980463525664
sS'amount'
p1097
S'0.1'
p1098
sS'priority'
p1099
S'1309993181880100'
p1100
sS'item'
p1101
S'BTC'
p1102
sS'real_status'
p1103
S'open'
p1104
sg744
g592
sS'amount_int'
p1105
I10000000
sS'date'
p1106
I1309993181
sS'type'
p1107
I2
sg748
F1310123733.020974
sg749
F1309993185.104168
sa(dp1108
S'status'
p1109
I1
sS'dark'
p1110
I0
sS'price_int'
p1111
I1455842
sg727
F14.704001972344
sg728
I300
sS'currency'
p1112
S'USD'
p1113
sS'price'
p1114
S'14.55842'
p1115
sS'oid'
p1116
S'0b294742-dc94-4be9-872d-7883faa6761a'
p1117
sg735
F10.5985281543232
sS'amount'
p1118
S'0.1'
p1119
sS'priority'
p1120
S'1309993450055600'
p1121
sS'item'
p1122
S'BTC'
p1123
sS'real_status'
p1124
S'open'
p1125
sg744
g789
sS'amount_int'
p1126
I10000000
sS'date'
p1127
I1309993450
sS'type'
p1128
I2
sg748
F1310123975.316932
sg749
F1309993451.294563
sa(dp1129
S'status'
p1130
I1
sS'dark'
p1131
I0
sS'price_int'
p1132
I1459989
sg727
F14.7458929501
sg728
I300
sS'currency'
p1133
S'USD'
p1134
sS'price'
p1135
S'14.59989'
p1136
sS'oid'
p1137
S'94754424-b047-4726-8c55-e997bfa24f28'
p1138
sg735
F10.62872283928
sS'amount'
p1139
S'0.1'
p1140
sS'priority'
p1141
S'1309993711413400'
p1142
sS'item'
p1143
S'BTC'
p1144
sS'real_status'
p1145
S'open'
p1146
sg744
g789
sS'amount_int'
p1147
I10000000
sS'date'
p1148
I1309993711
sS'type'
p1149
I2
sg748
F1310124217.653882
sg749
F1309993713.234794
sa(dp1150
S'status'
p1151
I1
sS'dark'
p1152
I0
sS'price_int'
p1153
I1460382
sg727
F14.787289987255
sg728
I300
sS'currency'
p1154
S'USD'
p1155
sS'price'
p1156
S'14.60382'
p1157
sS'oid'
p1158
S'152d6cd8-27f0-43f9-a181-00e784a8107f'
p1159
sg735
F10.658561495764001
sS'amount'
p1160
S'0.07'
p1161
sS'priority'
p1162
S'1309993861671300'
p1163
sS'item'
p1164
S'BTC'
p1165
sS'real_status'
p1166
S'open'
p1167
sg744
g592
sS'amount_int'
p1168
I7000000
sS'date'
p1169
I1309993861
sS'type'
p1170
I2
sg748
F1310124520.527312
sg749
F1309993995.661933
sa(dp1171
S'status'
p1172
I1
sS'dark'
p1173
I0
sS'price_int'
p1174
I1463795
sg727
F14.784328377789
sg728
I300
sS'currency'
p1175
S'USD'
p1176
sS'price'
p1177
S'14.63795'
p1178
sS'oid'
p1179
S'6fabee7f-e11a-43ee-8613-82008daf6c70'
p1180
sg735
F10.6564267911192
sS'amount'
p1181
S'0.1'
p1182
sS'priority'
p1183
S'1309994252634200'
p1184
sS'item'
p1185
S'BTC'
p1186
sS'real_status'
p1187
S'open'
p1188
sg744
g789
sS'amount_int'
p1189
I10000000
sS'date'
p1190
I1309994252
sS'type'
p1191
I2
sg748
I130560
sg749
F1309994254.009293
sa(dp1192
S'status'
p1193
I1
sS'dark'
p1194
I0
sS'price_int'
p1195
I1464424
sg727
F14.790684822485
sg728
I300
sS'currency'
p1196
S'USD'
p1197
sS'price'
p1198
S'14.64424'
p1199
sS'oid'
p1200
S'2e97e2f2-578c-415d-a5e8-f018ed1d20eb'
p1201
sg735
F10.661008466108
sS'amount'
p1202
S'0.1'
p1203
sS'priority'
p1204
S'1309994521523100'
p1205
sS'item'
p1206
S'BTC'
p1207
sS'real_status'
p1208
S'open'
p1209
sg744
g592
sS'amount_int'
p1210
I10000000
sS'date'
p1211
I1309994521
sS'type'
p1212
I2
sg748
I130560
sg749
F1309994522.884827
sa(dp1213
S'status'
p1214
I1
sS'dark'
p1215
I0
sS'price_int'
p1216
I1464458
sg727
F14.791022266616
sg728
I300
sS'currency'
p1217
S'USD'
p1218
sS'price'
p1219
S'14.64458'
p1220
sS'oid'
p1221
S'329d8221-1372-4a50-a3a7-9ebf21055ef6'
p1222
sg735
F10.6612516931648
sS'amount'
p1223
S'0.1'
p1224
sS'priority'
p1225
S'1309994776683000'
p1226
sS'item'
p1227
S'BTC'
p1228
sS'real_status'
p1229
S'open'
p1230
sg744
g789
sS'amount_int'
p1231
I10000000
sS'date'
p1232
I1309994776
sS'type'
p1233
I2
sg748
I130560
sg749
F1309994778.131092
sa(dp1234
S'status'
p1235
I1
sS'dark'
p1236
I0
sS'price_int'
p1237
I1464802
sg727
F14.794501884882001
sg728
I300
sS'currency'
p1238
S'USD'
p1239
sS'price'
p1240
S'14.64802'
p1241
sS'oid'
p1242
S'debff5d1-180d-4458-a8ad-7119f7225beb'
p1243
sg735
F10.6637597744496
sS'amount'
p1244
S'0.1'
p1245
sS'priority'
p1246
S'1309995035212200'
p1247
sS'item'
p1248
S'BTC'
p1249
sS'real_status'
p1250
S'open'
p1251
sg744
g570
sS'amount_int'
p1252
I10000000
sS'date'
p1253
I1309995035
sS'type'
p1254
I2
sg748
I130560
sg749
F1309995036.530345
sa(dp1255
S'status'
p1256
I1
sS'priority'
p1257
S'1309995371540900'
p1258
sS'price_int'
p1259
I1467000
sg530
F14.816699999999999
sg531
I300
sS'item'
p1260
S'BTC'
p1261
sS'price'
p1262
S'14.67'
p1263
sS'oid'
p1264
S'23b51429-9d9b-4bee-9c2d-b40da7899f11'
p1265
sg538
F10.67976
sS'real_status'
p1266
S'open'
p1267
sS'dark'
p1268
I0
sS'currency'
p1269
S'USD'
p1270
sS'amount'
p1271
S'0.1'
p1272
sg546
g570
sS'amount_int'
p1273
I10000000
sS'date'
p1274
I1309995372
sS'type'
p1275
I2
sg550
I130560
sg551
F1309995374.536092
sa(dp1276
S'status'
p1277
I1
sS'priority'
p1278
S'1309995632730200'
p1279
sS'price_int'
p1280
I1474016
sg530
F14.887557782301
sg531
I300
sS'item'
p1281
S'BTC'
p1282
sS'price'
p1283
S'14.74016'
p1284
sS'oid'
p1285
S'56115677-a154-458f-8d57-3786112faee7'
p1286
sg538
F10.730833728232799
sS'real_status'
p1287
S'open'
p1288
sS'dark'
p1289
I0
sS'currency'
p1290
S'USD'
p1291
sS'amount'
p1292
S'0.1'
p1293
sg546
g592
sS'amount_int'
p1294
I10000000
sS'date'
p1295
I1309995632
sS'type'
p1296
I2
sg550
I130560
sg551
F1309995633.906011
sa(dp1297
S'status'
p1298
I1
sS'priority'
p1299
S'1309995906962100'
p1300
sS'price_int'
p1301
I1474901
sg530
F14.896504912448
sg531
I300
sS'item'
p1302
S'BTC'
p1303
sS'price'
p1304
S'14.74901'
p1305
sS'oid'
p1306
S'7bb39a59-d7d1-442a-8b7e-d2e96f9a00e8'
p1307
sg538
F10.7372827487744
sS'real_status'
p1308
S'open'
p1309
sS'dark'
p1310
I0
sS'currency'
p1311
S'USD'
p1312
sS'amount'
p1313
S'0.1'
p1314
sg546
g592
sS'amount_int'
p1315
I10000000
sS'date'
p1316
I1309995906
sS'type'
p1317
I2
sg550
I130560
sg551
F1309995908.177167
sa(dp1318
S'status'
p1319
I1
sS'priority'
p1320
S'1309995756551200'
p1321
sS'price_int'
p1322
I1488900
sg530
F14.918685633548
sg531
I300
sS'item'
p1323
S'BTC'
p1324
sS'price'
p1325
S'14.889'
p1326
sS'oid'
p1327
S'307ce02a-41b2-4757-865e-ff339caddad5'
p1328
sg538
F10.7532704368544
sS'real_status'
p1329
S'open'
p1330
sS'dark'
p1331
I0
sS'currency'
p1332
S'USD'
p1333
sS'amount'
p1334
S'0.57'
p1335
sg546
g656
sS'amount_int'
p1336
I57000000
sS'date'
p1337
I1309995756
sS'type'
p1338
I1
sg550
I130560
sg551
F1309996160.696837
sa(dp1339
S'status'
p1340
I1
sS'priority'
p1341
S'1309996285548200'
p1342
sS'price_int'
p1343
I1467606
sg530
F14.8469798
sg531
I300
sS'item'
p1344
S'BTC'
p1345
sS'price'
p1346
S'14.67606'
p1347
sS'oid'
p1348
S'79a3e99d-0243-4c9f-8e78-29f2aa3c4132'
p1349
sg538
F10.701585439999999
sS'real_status'
p1350
S'open'
p1351
sS'dark'
p1352
I0
sS'currency'
p1353
S'USD'
p1354
sS'amount'
p1355
S'0.1'
p1356
sg546
g592
sS'amount_int'
p1357
I10000000
sS'date'
p1358
I1309996285
sS'type'
p1359
I2
sg550
I130560
sg551
F1309996414.766206
sa(dp1360
S'status'
p1361
I1
sS'priority'
p1362
S'1309996667258200'
p1363
sS'price_int'
p1364
I1469862
sg530
F14.845604129903998
sg531
I300
sS'item'
p1365
S'BTC'
p1366
sS'price'
p1367
S'14.69862'
p1368
sS'oid'
p1369
S'211954a4-c171-49e8-8475-19253362f343'
p1370
sg538
F10.700593867891198
sS'real_status'
p1371
S'open'
p1372
sS'dark'
p1373
I0
sS'currency'
p1374
S'USD'
p1375
sS'amount'
p1376
S'0.1'
p1377
sg546
g592
sS'amount_int'
p1378
I10000000
sS'date'
p1379
I1309996667
sS'type'
p1380
I2
sg550
I130560
sg551
F1309996668.546888
sa(dp1381
S'status'
p1382
I1
sS'priority'
p1383
S'1309995756551200'
p1384
sS'price_int'
p1385
I1488900
sg530
F14.9312037
sg531
I300
sS'item'
p1386
S'BTC'
p1387
sS'price'
p1388
S'14.889'
p1389
sS'oid'
p1390
S'307ce02a-41b2-4757-865e-ff339caddad5'
p1391
sg538
F10.76229336
sS'real_status'
p1392
S'open'
p1393
sS'dark'
p1394
I0
sS'currency'
p1395
S'USD'
p1396
sS'amount'
p1397
S'0.57'
p1398
sg546
g656
sS'amount_int'
p1399
I57000000
sS'date'
p1400
I1309995756
sS'type'
p1401
I1
sg550
I130560
sg551
F1309996921.999658
sa(dp1402
S'status'
p1403
I1
sS'priority'
p1404
S'1309997178689100'
p1405
sS'price_int'
p1406
I1459320
sg530
F14.739127929498
sg531
I300
sS'item'
p1407
S'BTC'
p1408
sS'price'
p1409
S'14.5932'
p1410
sS'oid'
p1411
S'928072d3-c3ed-4b40-9bb7-57b6ce07e1f5'
p1412
sg538
F10.6238466660144
sS'real_status'
p1413
S'open'
p1414
sS'dark'
p1415
I0
sS'currency'
p1416
S'USD'
p1417
sS'amount'
p1418
S'0.1'
p1419
sg546
g570
sS'amount_int'
p1420
I10000000
sS'date'
p1421
I1309997178
sS'type'
p1422
I2
sg550
I130560
sg551
F1309997179.968422
sa(dp1423
S'status'
p1424
I1
sS'priority'
p1425
S'1309998433633400'
p1426
sS'price_int'
p1427
I1485706
sg530
F15.005634867957001
sg531
I300
sS'item'
p1428
S'BTC'
p1429
sS'price'
p1430
S'14.85706'
p1431
sS'oid'
p1432
S'd0cba64d-e7fb-476e-8572-35f9b12e9dd7'
p1433
sg538
F10.8159427563096
sS'real_status'
p1434
S'open'
p1435
sS'dark'
p1436
I0
sS'currency'
p1437
S'USD'
p1438
sS'amount'
p1439
S'0.1'
p1440
sg546
S'held'
p1441
sS'amount_int'
p1442
I10000000
sS'date'
p1443
I1309998433
sS'type'
p1444
I2
sg550
I130560
sg551
F1309998434.898686
sa(dp1445
S'status'
p1446
I1
sS'priority'
p1447
S'1309998430119600'
p1448
sS'price_int'
p1449
I1495890
sg530
F14.837630049917
sg531
I300
sS'item'
p1450
S'BTC'
p1451
sS'price'
p1452
S'14.9589'
p1453
sS'oid'
p1454
S'f38c8129-6afa-426f-944a-e1303ab61bae'
p1455
sg538
F10.6948462141976
sS'real_status'
p1456
S'open'
p1457
sS'dark'
p1458
I0
sS'currency'
p1459
S'USD'
p1460
sS'amount'
p1461
S'0.1'
p1462
sg546
g91
sS'amount_int'
p1463
I10000000
sS'date'
p1464
I1309998430
sS'type'
p1465
I1
sg550
I130560
sg551
F1310000171.540284
sa(dp1466
S'status'
p1467
I1
sS'priority'
p1468
S'1309998430119600'
p1469
sS'price_int'
p1470
I1495890
sg164
F14.715739140934
sg165
I300
sS'item'
p1471
S'BTC'
p1472
sS'price'
p1473
S'14.9589'
p1474
sS'oid'
p1475
S'f38c8129-6afa-426f-944a-e1303ab61bae'
p1476
sg172
F10.6069882124752
sS'real_status'
p1477
S'open'
p1478
sS'dark'
p1479
I0
sS'currency'
p1480
S'USD'
p1481
sS'amount'
p1482
S'0.1'
p1483
sg180
g91
sS'amount_int'
p1484
I10000000
sS'date'
p1485
I1309998430
sS'type'
p1486
I1
sg184
I130560
sg185
F1310002610.803857
sa(dp1487
S'status'
p1488
I1
sS'priority'
p1489
S'1310002863092000'
p1490
sS'price_int'
p1491
I1456904
sg164
F14.714726071443
sg165
I300
sS'item'
p1492
S'BTC'
p1493
sS'price'
p1494
S'14.56904'
p1495
sS'oid'
p1496
S'597be8da-3c08-43dd-a9d2-5142d7ba09f7'
p1497
sg172
F10.6062580000104
sS'real_status'
p1498
S'open'
p1499
sS'dark'
p1500
I0
sS'currency'
p1501
S'USD'
p1502
sS'amount'
p1503
S'0.1'
p1504
sg180
g204
sS'amount_int'
p1505
I10000000
sS'date'
p1506
I1310002863
sS'type'
p1507
I2
sg184
I130560
sg185
F1310002864.324341
sa(dp1508
S'status'
p1509
I1
sS'priority'
p1510
S'1310002989059700'
p1511
sS'price_int'
p1512
I1455000
sg164
F14.7661798
sg165
I300
sS'item'
p1513
S'BTC'
p1514
sS'price'
p1515
S'14.55'
p1516
sS'oid'
p1517
S'6761a8bb-1df8-4917-b228-587ca29a2f6f'
p1518
sg172
F10.64334544
sS'real_status'
p1519
S'open'
p1520
sS'dark'
p1521
I0
sS'currency'
p1522
S'USD'
p1523
sS'amount'
p1524
S'0.1'
p1525
sg180
g310
sS'amount_int'
p1526
I10000000
sS'date'
p1527
I1310002989
sS'type'
p1528
I2
sg184
I130560
sg185
F1310003128.957076
sa(dp1529
S'status'
p1530
I1
sS'priority'
p1531
S'1310003384309100'
p1532
sS'price_int'
p1533
I1458310
sg164
F14.728935930618
sg165
I300
sS'item'
p1534
S'BTC'
p1535
sS'price'
p1536
S'14.5831'
p1537
sS'oid'
p1538
S'592220a2-2772-40e9-a354-7e7e4e25471d'
p1539
sg172
F10.6165003539504
sS'real_status'
p1540
S'open'
p1541
sS'dark'
p1542
I0
sS'currency'
p1543
S'USD'
p1544
sS'amount'
p1545
S'0.1'
p1546
sg180
g204
sS'amount_int'
p1547
I10000000
sS'date'
p1548
I1310003384
sS'type'
p1549
I2
sg184
I130560
sg185
F1310003386.465814
sa(dp1550
S'status'
p1551
I1
sS'priority'
p1552
S'1310003643322500'
p1553
sS'price_int'
p1554
I1463000
sg164
F14.7763
sg165
I300
sS'item'
p1555
S'BTC'
p1556
sS'price'
p1557
S'14.63'
p1558
sS'oid'
p1559
S'5cfb4de4-0542-4216-83f4-1e626ce50238'
p1560
sg172
F10.65064
sS'real_status'
p1561
S'open'
p1562
sS'dark'
p1563
I0
sS'currency'
p1564
S'USD'
p1565
sS'amount'
p1566
S'0.1'
p1567
sg180
g310
sS'amount_int'
p1568
I10000000
sS'date'
p1569
I1310003643
sS'type'
p1570
I2
sg184
I130560
sg185
F1310003644.709515
sa(dp1571
S'status'
p1572
I1
sS'priority'
p1573
S'1310003899640800'
p1574
sS'price_int'
p1575
I1465384
sg164
F14.800375786725999
sg165
I300
sS'item'
p1576
S'BTC'
p1577
sS'price'
p1578
S'14.65384'
p1579
sS'oid'
p1580
S'42766d14-e564-4e37-b8a8-726b81e94bf0'
p1581
sg172
F10.667993636372799
sS'real_status'
p1582
S'open'
p1583
sS'dark'
p1584
I0
sS'currency'
p1585
S'USD'
p1586
sS'amount'
p1587
S'0.1'
p1588
sg180
g204
sS'amount_int'
p1589
I10000000
sS'date'
p1590
I1310003899
sS'type'
p1591
I2
sg184
I130560
sg185
F1310003900.961873
sa(dp1592
S'status'
p1593
I1
sS'priority'
p1594
S'1310004037390400'
p1595
sS'price_int'
p1596
I1464077
sg164
F14.787173692017
sg165
I300
sS'item'
p1597
S'BTC'
p1598
sS'price'
p1599
S'14.64077'
p1600
sS'oid'
p1601
S'322d8027-2f01-4c3b-9dd8-fad7f45c1195'
p1602
sg172
F10.6584776710776
sS'real_status'
p1603
S'open'
p1604
sS'dark'
p1605
I0
sS'currency'
p1606
S'USD'
p1607
sS'amount'
p1608
S'0.2'
p1609
sg180
g310
sS'amount_int'
p1610
I20000000
sS'date'
p1611
I1310004037
sS'type'
p1612
I2
sg184
I130560
sg185
F1310004165.18341
sa(dp1613
S'status'
p1614
I1
sS'priority'
p1615
S'1310004421767100'
p1616
sS'price_int'
p1617
I1464077
sg164
F14.787173692017
sg165
I300
sS'item'
p1618
S'BTC'
p1619
sS'price'
p1620
S'14.64077'
p1621
sS'oid'
p1622
S'0f103d7f-523b-4c44-a1a7-76967e7bda16'
p1623
sg172
F10.6584776710776
sS'real_status'
p1624
S'open'
p1625
sS'dark'
p1626
I0
sS'currency'
p1627
S'USD'
p1628
sS'amount'
p1629
S'0.1'
p1630
sg180
g204
sS'amount_int'
p1631
I10000000
sS'date'
p1632
I1310004421
sS'type'
p1633
I2
sg184
I130560
sg185
F1310004423.08137
sa(dp1634
S'status'
p1635
I1
sS'priority'
p1636
S'1310004421767100'
p1637
sS'price_int'
p1638
I1464077
sg164
F14.787173692017
sg165
I300
sS'item'
p1639
S'BTC'
p1640
sS'price'
p1641
S'14.64077'
p1642
sS'oid'
p1643
S'0f103d7f-523b-4c44-a1a7-76967e7bda16'
p1644
sg172
F10.6584776710776
sS'real_status'
p1645
S'open'
p1646
sS'dark'
p1647
I0
sS'currency'
p1648
S'USD'
p1649
sS'amount'
p1650
S'0.3'
p1651
sg180
g310
sS'amount_int'
p1652
I30000000
sS'date'
p1653
I1310004421
sS'type'
p1654
I2
sg184
I130560
sg185
F1310004678.48427
sa(dp1655
S'status'
p1656
I1
sS'priority'
p1657
S'1310004817522800'
p1658
sS'price_int'
p1659
I1464077
sg164
F14.787173692017
sg165
I300
sS'item'
p1660
S'BTC'
p1661
sS'price'
p1662
S'14.64077'
p1663
sS'oid'
p1664
S'c48b2473-8cd0-41f2-885f-b97ee04014c9'
p1665
sg172
F10.6584776710776
sS'real_status'
p1666
S'open'
p1667
sS'dark'
p1668
I0
sS'currency'
p1669
S'USD'
p1670
sS'amount'
p1671
S'0.2'
p1672
sg180
g310
sS'amount_int'
p1673
I20000000
sS'date'
p1674
I1310004817
sS'type'
p1675
I2
sg184
I130560
sg185
F1310004945.44837
sa(dp1676
S'status'
p1677
I1
sS'priority'
p1678
S'1310005197518100'
p1679
sS'price_int'
p1680
I1464077
sg164
F14.787173692017
sg165
I300
sS'item'
p1681
S'BTC'
p1682
sS'price'
p1683
S'14.64077'
p1684
sS'oid'
p1685
S'2d49a12b-9c2b-4196-a17c-7afbda73d26e'
p1686
sg172
F10.6584776710776
sS'real_status'
p1687
S'open'
p1688
sS'dark'
p1689
I0
sS'currency'
p1690
S'USD'
p1691
sS'amount'
p1692
S'0.1'
p1693
sg180
g310
sS'amount_int'
p1694
I10000000
sS'date'
p1695
I1310005197
sS'type'
p1696
I2
sg184
I130560
sg185
F1310005198.831455
sa(dp1697
S'status'
p1698
I1
sS'priority'
p1699
S'1310005709482400'
p1700
sS'price_int'
p1701
I1464077
sg164
F14.787173692017
sg165
I300
sS'item'
p1702
S'BTC'
p1703
sS'price'
p1704
S'14.64077'
p1705
sS'oid'
p1706
S'5cc64d09-e268-443e-9294-b5cc7d0c302f'
p1707
sg172
F10.6584776710776
sS'real_status'
p1708
S'open'
p1709
sS'dark'
p1710
I0
sS'currency'
p1711
S'USD'
p1712
sS'amount'
p1713
S'0.1'
p1714
sg180
g204
sS'amount_int'
p1715
I10000000
sS'date'
p1716
I1310005709
sS'type'
p1717
I2
sg184
I130560
sg185
F1310005722.018734
sa(dp1718
S'status'
p1719
I2
sS'priority'
p1720
S'1310005973807800'
p1721
sS'price_int'
p1722
I1464077
sg164
F14.787173692017
sg165
I300
sS'item'
p1723
S'BTC'
p1724
sS'price'
p1725
S'14.64077'
p1726
sS'oid'
p1727
S'84a73e15-8acb-40ba-887f-8fb82e5df581'
p1728
sg172
F10.6584776710776
sS'real_status'
p1729
S'pending'
p1730
sS'dark'
p1731
I0
sS'currency'
p1732
S'USD'
p1733
sS'amount'
p1734
S'0.1'
p1735
sg180
g416
sS'amount_int'
p1736
I10000000
sS'date'
p1737
I1310005973
sS'type'
p1738
I2
sg184
I130560
sg185
F1310005976.792365
sa(dp1739
S'status'
p1740
I1
sS'priority'
p1741
S'1310006114559400'
p1742
sS'price_int'
p1743
I1464077
sg164
F14.787173692017
sg165
I300
sS'item'
p1744
S'BTC'
p1745
sS'price'
p1746
S'14.64077'
p1747
sS'oid'
p1748
S'3918e6f3-9d52-4820-80b4-4d1f32b1456c'
p1749
sg172
F10.6584776710776
sS'real_status'
p1750
S'open'
p1751
sS'dark'
p1752
I0
sS'currency'
p1753
S'USD'
p1754
sS'amount'
p1755
S'0.2'
p1756
sg180
g113
sS'amount_int'
p1757
I20000000
sS'date'
p1758
I1310006114
sS'type'
p1759
I2
sg184
I130560
sg185
F1310006244.687457
sa(dp1760
S'status'
p1761
I1
sS'priority'
p1762
S'1310006621043800'
p1763
sS'price_int'
p1764
I1464077
sg164
F14.787173692017
sg165
I300
sS'item'
p1765
S'BTC'
p1766
sS'price'
p1767
S'14.64077'
p1768
sS'oid'
p1769
S'c6c430b1-da8e-4f88-8c74-f3a629ed5050'
p1770
sg172
F10.6584776710776
sS'real_status'
p1771
S'open'
p1772
sS'dark'
p1773
I0
sS'currency'
p1774
S'USD'
p1775
sS'amount'
p1776
S'0.2'
p1777
sg180
g113
sS'amount_int'
p1778
I20000000
sS'date'
p1779
I1310006621
sS'type'
p1780
I2
sg184
I130560
sg185
F1310006748.394745
sa(dp1781
S'status'
p1782
I1
sS'priority'
p1783
S'1310007001637300'
p1784
sS'price_int'
p1785
I1464077
sg164
F14.787173692017
sg165
I300
sS'item'
p1786
S'BTC'
p1787
sS'price'
p1788
S'14.64077'
p1789
sS'oid'
p1790
S'550578e5-acb1-4f45-8ba5-ccee65cc8e7c'
p1791
sg172
F10.6584776710776
sS'real_status'
p1792
S'open'
p1793
sS'dark'
p1794
I0
sS'currency'
p1795
S'USD'
p1796
sS'amount'
p1797
S'0.1'
p1798
sg180
g113
sS'amount_int'
p1799
I10000000
sS'date'
p1800
I1310007001
sS'type'
p1801
I2
sg184
I130560
sg185
F1310007004.369959
sa(dp1802
S'status'
p1803
I1
sS'dark'
p1804
I0
sS'price_int'
p1805
I1464077
sg5
F14.787173692017
sg6
I300
sS'currency'
p1806
S'USD'
p1807
sS'price'
p1808
S'14.64077'
p1809
sS'oid'
p1810
S'9d68e089-a9be-4149-a579-5f9e356fac4b'
p1811
sg13
F10.6584776710776
sS'amount'
p1812
S'0.1'
p1813
sS'priority'
p1814
S'1310015355857500'
p1815
sS'item'
p1816
S'BTC'
p1817
sS'real_status'
p1818
S'open'
p1819
sg22
g69
sS'amount_int'
p1820
I10000000
sS'date'
p1821
I1310015355
sS'type'
p1822
I2
sg27
I130560
sg28
F1310015357.104976
sa(dp1823
S'status'
p1824
I0
sS'dark'
p1825
I0
sS'price_int'
p1826
I1480660
sg5
F14.787173692017
sg6
I300
sS'currency'
p1827
S'USD'
p1828
sS'price'
p1829
S'14.8066'
p1830
sS'oid'
p1831
S'5a2a227f-2ba4-450d-b64b-a3fbc71f93a1'
p1832
sg13
F10.6584776710776
sS'amount'
p1833
S'1.13'
p1834
sS'priority'
p1835
S'1310015479298500'
p1836
sS'item'
p1837
S'BTC'
p1838
sS'real_status'
p1839
S'invalid'
p1840
sg22
g91
sS'amount_int'
p1841
I113000000
sS'date'
p1842
I1310015479
sS'type'
p1843
I1
sg27
I130560
sg28
F1310015614.585409
sa(dp1844
S'status'
p1845
I1
sS'dark'
p1846
I0
sS'price_int'
p1847
I1464077
sg5
F14.787173692017
sg6
I300
sS'currency'
p1848
S'USD'
p1849
sS'price'
p1850
S'14.64077'
p1851
sS'oid'
p1852
S'b460c961-de61-453f-98e7-ad6d6df60c63'
p1853
sg13
F10.6584776710776
sS'amount'
p1854
S'0.2'
p1855
sS'priority'
p1856
S'1310015740773500'
p1857
sS'item'
p1858
S'BTC'
p1859
sS'real_status'
p1860
S'open'
p1861
sg22
g113
sS'amount_int'
p1862
I20000000
sS'date'
p1863
I1310015740
sS'type'
p1864
I2
sg27
I130560
sg28
F1310015868.351303
sa(dp1865
S'status'
p1866
I1
sS'dark'
p1867
I0
sS'price_int'
p1868
I1464077
sg5
F14.787173692017
sg6
I300
sS'currency'
p1869
S'USD'
p1870
sS'price'
p1871
S'14.64077'
p1872
sS'oid'
p1873
S'4cd4f2a2-39fe-4d73-8e70-4c3e41c32c6b'
p1874
sg13
F10.6584776710776
sS'amount'
p1875
S'0.1'
p1876
sS'priority'
p1877
S'1310016125926600'
p1878
sS'item'
p1879
S'BTC'
p1880
sS'real_status'
p1881
S'open'
p1882
sg22
g69
sS'amount_int'
p1883
I10000000
sS'date'
p1884
I1310016125
sS'type'
p1885
I2
sg27
I130560
sg28
F1310016127.323483
sa(dp1886
S'status'
p1887
I0
sS'dark'
p1888
I0
sS'price_int'
p1889
I1483390
sg5
F14.787173692017
sg6
I300
sS'currency'
p1890
S'USD'
p1891
sS'price'
p1892
S'14.8339'
p1893
sS'oid'
p1894
S'6d394c50-cc50-4a3f-8af7-d89f3c554bb1'
p1895
sg13
F10.6584776710776
sS'amount'
p1896
S'0.5'
p1897
sS'priority'
p1898
S'1310016249369300'
p1899
sS'item'
p1900
S'BTC'
p1901
sS'real_status'
p1902
S'invalid'
p1903
sg22
g91
sS'amount_int'
p1904
I50000000
sS'date'
p1905
I1310016249
sS'type'
p1906
I1
sg27
I130560
sg28
F1310016380.974008
sa(dp1907
S'status'
p1908
I1
sS'dark'
p1909
I0
sS'price_int'
p1910
I1464077
sg5
F14.787173692017
sg6
I300
sS'currency'
p1911
S'USD'
p1912
sS'price'
p1913
S'14.64077'
p1914
sS'oid'
p1915
S'679b662f-7cea-435f-b5d7-e9cacf2db58c'
p1916
sg13
F10.6584776710776
sS'amount'
p1917
S'0.2'
p1918
sS'priority'
p1919
S'1310016520313600'
p1920
sS'item'
p1921
S'BTC'
p1922
sS'real_status'
p1923
S'open'
p1924
sg22
g47
sS'amount_int'
p1925
I20000000
sS'date'
p1926
I1310016520
sS'type'
p1927
I2
sg27
I130560
sg28
F1310016652.351947
sa(dp1928
S'status'
p1929
I1
sS'dark'
p1930
I0
sS'price_int'
p1931
I1464077
sg5
F14.787173692017
sg6
I300
sS'currency'
p1932
S'USD'
p1933
sS'price'
p1934
S'14.64077'
p1935
sS'oid'
p1936
S'50e6bd1f-b74d-477f-b72e-92d8922ab351'
p1937
sg13
F10.6584776710776
sS'amount'
p1938
S'0.1'
p1939
sS'priority'
p1940
S'1310016905177300'
p1941
sS'item'
p1942
S'BTC'
p1943
sS'real_status'
p1944
S'open'
p1945
sg22
g23
sS'amount_int'
p1946
I10000000
sS'date'
p1947
I1310016905
sS'type'
p1948
I2
sg27
I130560
sg28
F1310016906.523806
sa(dp1949
S'status'
p1950
I1
sS'dark'
p1951
I0
sS'price_int'
p1952
I1464077
sg5
F14.787173692017
sg6
I300
sS'currency'
p1953
S'USD'
p1954
sS'price'
p1955
S'14.64077'
p1956
sS'oid'
p1957
S'50e6bd1f-b74d-477f-b72e-92d8922ab351'
p1958
sg13
F10.6584776710776
sS'amount'
p1959
S'0.3'
p1960
sS'priority'
p1961
S'1310016905177300'
p1962
sS'item'
p1963
S'BTC'
p1964
sS'real_status'
p1965
S'open'
p1966
sg22
g23
sS'amount_int'
p1967
I30000000
sS'date'
p1968
I1310016905
sS'type'
p1969
I2
sg27
I130560
sg28
F1310017159.098248
sa.